target datalayout = "e-m:e-p270:32:32-p271:32:32-p272:64:64-i64:64-i128:128-f80:128-n8:16:32:64-S128"
target triple = "x86_64-pc-linux-gnu"

%struct.Parser = type { ptr, ptr, i32, i32, i32, ptr, ptr, ptr, i32, i32, ptr, i32, ptr, i32, i32, i32, i32, i32, %struct.growable_comment_array, ptr, i32, i32, i32 }
%struct.growable_comment_array = type { ptr, i64, i64 }
%struct.tok_state = type { ptr, ptr, ptr, i32, ptr, ptr, ptr, ptr, i32, ptr, i32, i32, [100 x i32], i32, i32, ptr, ptr, i32, i32, i32, i32, i32, [200 x i8], [200 x i32], [200 x i32], ptr, [100 x i32], i32, i32, ptr, i32, ptr, ptr, ptr, ptr, ptr, ptr, ptr, ptr, i32, i32, ptr, i32, [150 x %struct._tokenizer_mode], i32, i32, i32, i32 }
%struct._tokenizer_mode = type { i32, i32, i32, i8, i32, i32, ptr, ptr, i32, i64, i64, i64, i64, ptr, i32, i32 }

@.str.13 = private unnamed_addr constant [8 x i8] c"replace\00", align 1

; Function Attrs: nounwind uwtable
define internal ptr @get_error_line_from_tokenizer_buffers(ptr noundef %0, i64 noundef %1) #0 {
  %3 = alloca ptr, align 8
  %4 = alloca ptr, align 8
  %5 = alloca i64, align 8
  %6 = alloca ptr, align 8
  %7 = alloca i32, align 4
  %8 = alloca i64, align 8
  %9 = alloca ptr, align 8
  %10 = alloca i32, align 4
  %11 = alloca ptr, align 8
  %12 = alloca ptr, align 8
  store ptr %0, ptr %4, align 8, !tbaa !10
  store i64 %1, ptr %5, align 8, !tbaa !13
  call void @llvm.lifetime.start.p0(i64 8, ptr %6) #7
  %13 = load ptr, ptr %4, align 8, !tbaa !10
  %14 = getelementptr inbounds nuw %struct.Parser, ptr %13, i32 0, i32 0
  %15 = load ptr, ptr %14, align 8, !tbaa !23
  %16 = getelementptr inbounds nuw %struct.tok_state, ptr %15, i32 0, i32 3
  %17 = load i32, ptr %16, align 8, !tbaa !45
  %18 = icmp ne i32 %17, 0
  br i1 %18, label %19, label %25

19:                                               ; preds = %2
  %20 = load ptr, ptr %4, align 8, !tbaa !10
  %21 = getelementptr inbounds nuw %struct.Parser, ptr %20, i32 0, i32 0
  %22 = load ptr, ptr %21, align 8, !tbaa !23
  %23 = getelementptr inbounds nuw %struct.tok_state, ptr %22, i32 0, i32 4
  %24 = load ptr, ptr %23, align 8, !tbaa !46
  br label %31

25:                                               ; preds = %2
  %26 = load ptr, ptr %4, align 8, !tbaa !10
  %27 = getelementptr inbounds nuw %struct.Parser, ptr %26, i32 0, i32 0
  %28 = load ptr, ptr %27, align 8, !tbaa !23
  %29 = getelementptr inbounds nuw %struct.tok_state, ptr %28, i32 0, i32 37
  %30 = load ptr, ptr %29, align 8, !tbaa !53
  br label %31

31:                                               ; preds = %25, %19
  %32 = phi ptr [ %24, %19 ], [ %30, %25 ]
  store ptr %32, ptr %6, align 8, !tbaa !11
  %33 = load ptr, ptr %6, align 8, !tbaa !11
  %34 = icmp eq ptr %33, null
  br i1 %34, label %35, label %37

35:                                               ; preds = %31
  %36 = call ptr @Py_GetConstant(i32 noundef 7)
  store ptr %36, ptr %3, align 8
  store i32 1, ptr %7, align 4
  br label %128

37:                                               ; preds = %31
  call void @llvm.lifetime.start.p0(i64 8, ptr %8) #7
  %38 = load ptr, ptr %4, align 8, !tbaa !10
  %39 = getelementptr inbounds nuw %struct.Parser, ptr %38, i32 0, i32 13
  %40 = load i32, ptr %39, align 8, !tbaa !54
  %41 = icmp ne i32 %40, 0
  br i1 %41, label %42, label %50

42:                                               ; preds = %37
  %43 = load i64, ptr %5, align 8, !tbaa !13
  %44 = load ptr, ptr %4, align 8, !tbaa !10
  %45 = getelementptr inbounds nuw %struct.Parser, ptr %44, i32 0, i32 13
  %46 = load i32, ptr %45, align 8, !tbaa !54
  %47 = sext i32 %46 to i64
  %48 = sub i64 %43, %47
  %49 = add i64 %48, 1
  br label %52

50:                                               ; preds = %37
  %51 = load i64, ptr %5, align 8, !tbaa !13
  br label %52

52:                                               ; preds = %50, %42
  %53 = phi i64 [ %49, %42 ], [ %51, %50 ]
  store i64 %53, ptr %8, align 8, !tbaa !13
  call void @llvm.lifetime.start.p0(i64 8, ptr %9) #7
  %54 = load ptr, ptr %4, align 8, !tbaa !10
  %55 = getelementptr inbounds nuw %struct.Parser, ptr %54, i32 0, i32 0
  %56 = load ptr, ptr %55, align 8, !tbaa !23
  %57 = getelementptr inbounds nuw %struct.tok_state, ptr %56, i32 0, i32 3
  %58 = load i32, ptr %57, align 8, !tbaa !45
  %59 = icmp ne i32 %58, 0
  br i1 %59, label %60, label %66

60:                                               ; preds = %52
  %61 = load ptr, ptr %4, align 8, !tbaa !10
  %62 = getelementptr inbounds nuw %struct.Parser, ptr %61, i32 0, i32 0
  %63 = load ptr, ptr %62, align 8, !tbaa !23
  %64 = getelementptr inbounds nuw %struct.tok_state, ptr %63, i32 0, i32 5
  %65 = load ptr, ptr %64, align 8, !tbaa !55
  br label %72

66:                                               ; preds = %52
  %67 = load ptr, ptr %4, align 8, !tbaa !10
  %68 = getelementptr inbounds nuw %struct.Parser, ptr %67, i32 0, i32 0
  %69 = load ptr, ptr %68, align 8, !tbaa !23
  %70 = getelementptr inbounds nuw %struct.tok_state, ptr %69, i32 0, i32 2
  %71 = load ptr, ptr %70, align 8, !tbaa !50
  br label %72

72:                                               ; preds = %66, %60
  %73 = phi ptr [ %65, %60 ], [ %71, %66 ]
  store ptr %73, ptr %9, align 8, !tbaa !11
  %74 = load ptr, ptr %9, align 8, !tbaa !11
  %75 = load ptr, ptr %6, align 8, !tbaa !11
  %76 = icmp ult ptr %74, %75
  br i1 %76, label %77, label %82

77:                                               ; preds = %72
  %78 = load ptr, ptr %6, align 8, !tbaa !11
  %79 = load ptr, ptr %6, align 8, !tbaa !11
  %80 = call i64 @strlen(ptr noundef %79) #8
  %81 = getelementptr i8, ptr %78, i64 %80
  store ptr %81, ptr %9, align 8, !tbaa !11
  br label %82

82:                                               ; preds = %77, %72
  call void @llvm.lifetime.start.p0(i64 4, ptr %10) #7
  store i32 0, ptr %10, align 4, !tbaa !31
  br label %83

83:                                               ; preds = %107, %82
  %84 = load i32, ptr %10, align 4, !tbaa !31
  %85 = sext i32 %84 to i64
  %86 = load i64, ptr %8, align 8, !tbaa !13
  %87 = sub i64 %86, 1
  %88 = icmp slt i64 %85, %87
  br i1 %88, label %90, label %89

89:                                               ; preds = %83
  store i32 2, ptr %7, align 4
  br label %110

90:                                               ; preds = %83
  call void @llvm.lifetime.start.p0(i64 8, ptr %11) #7
  %91 = load ptr, ptr %6, align 8, !tbaa !11
  %92 = call ptr @strchr(ptr noundef %91, i32 noundef 10) #8
  store ptr %92, ptr %11, align 8, !tbaa !11
  %93 = load ptr, ptr %11, align 8, !tbaa !11
  %94 = icmp eq ptr %93, null
  br i1 %94, label %100, label %95

95:                                               ; preds = %90
  %96 = load ptr, ptr %11, align 8, !tbaa !11
  %97 = getelementptr i8, ptr %96, i64 1
  %98 = load ptr, ptr %9, align 8, !tbaa !11
  %99 = icmp ugt ptr %97, %98
  br i1 %99, label %100, label %101

100:                                              ; preds = %95, %90
  store i32 2, ptr %7, align 4
  br label %104

101:                                              ; preds = %95
  %102 = load ptr, ptr %11, align 8, !tbaa !11
  %103 = getelementptr i8, ptr %102, i64 1
  store ptr %103, ptr %6, align 8, !tbaa !11
  store i32 0, ptr %7, align 4
  br label %104

104:                                              ; preds = %101, %100
  call void @llvm.lifetime.end.p0(i64 8, ptr %11) #7
  %105 = load i32, ptr %7, align 4
  switch i32 %105, label %110 [
    i32 0, label %106
  ]

106:                                              ; preds = %104
  br label %107

107:                                              ; preds = %106
  %108 = load i32, ptr %10, align 4, !tbaa !31
  %109 = add i32 %108, 1
  store i32 %109, ptr %10, align 4, !tbaa !31
  br label %83, !llvm.loop !56

110:                                              ; preds = %104, %89
  call void @llvm.lifetime.end.p0(i64 4, ptr %10) #7
  br label %111

111:                                              ; preds = %110
  call void @llvm.lifetime.start.p0(i64 8, ptr %12) #7
  %112 = load ptr, ptr %6, align 8, !tbaa !11
  %113 = call ptr @strchr(ptr noundef %112, i32 noundef 10) #8
  store ptr %113, ptr %12, align 8, !tbaa !11
  %114 = icmp eq ptr %113, null
  br i1 %114, label %115, label %120

115:                                              ; preds = %111
  %116 = load ptr, ptr %6, align 8, !tbaa !11
  %117 = load ptr, ptr %6, align 8, !tbaa !11
  %118 = call i64 @strlen(ptr noundef %117) #8
  %119 = getelementptr i8, ptr %116, i64 %118
  store ptr %119, ptr %12, align 8, !tbaa !11
  br label %120

120:                                              ; preds = %115, %111
  %121 = load ptr, ptr %6, align 8, !tbaa !11
  %122 = load ptr, ptr %12, align 8, !tbaa !11
  %123 = load ptr, ptr %6, align 8, !tbaa !11
  %124 = ptrtoint ptr %122 to i64
  %125 = ptrtoint ptr %123 to i64
  %126 = sub i64 %124, %125
  %127 = call ptr @PyUnicode_DecodeUTF8(ptr noundef %121, i64 noundef %126, ptr noundef @.str.13)
  store ptr %127, ptr %3, align 8
  store i32 1, ptr %7, align 4
  call void @llvm.lifetime.end.p0(i64 8, ptr %12) #7
  call void @llvm.lifetime.end.p0(i64 8, ptr %9) #7
  call void @llvm.lifetime.end.p0(i64 8, ptr %8) #7
  br label %128

128:                                              ; preds = %120, %35
  call void @llvm.lifetime.end.p0(i64 8, ptr %6) #7
  %129 = load ptr, ptr %3, align 8
  ret ptr %129
}