; Function Attrs: nounwind uwtable
define internal fastcc ptr @get_error_line_from_tokenizer_buffers(ptr noundef readonly captures(none) %0, i64 noundef %1) unnamed_addr #0 {
  %3 = load ptr, ptr %0, align 8, !tbaa !19
  %4 = getelementptr inbounds nuw i8, ptr %3, i64 24
  %5 = load i32, ptr %4, align 8, !tbaa !41
  %.not = icmp eq i32 %5, 0
  %.in.v = select i1 %.not, i64 2816, i64 32
  %.in = getelementptr inbounds nuw i8, ptr %3, i64 %.in.v
  %6 = load ptr, ptr %.in, align 8, !tbaa !48
  %7 = icmp eq ptr %6, null
  br i1 %7, label %8, label %10

8:                                                ; preds = %2
  %9 = tail call ptr @Py_GetConstant(i32 noundef 7) #7
  br label %41

10:                                               ; preds = %2
  %11 = getelementptr inbounds nuw i8, ptr %0, i64 88
  %12 = load i32, ptr %11, align 8, !tbaa !49
  %.not41 = icmp eq i32 %12, 0
  %13 = sext i32 %12 to i64
  %14 = sub nsw i64 0, %13
  %.p = select i1 %.not41, i64 -1, i64 %14
  %15 = add i64 %.p, %1
  %.in43.v = select i1 %.not, i64 16, i64 40
  %.in43 = getelementptr inbounds nuw i8, ptr %3, i64 %.in43.v
  %16 = load ptr, ptr %.in43, align 8, !tbaa !48
  %17 = icmp ult ptr %16, %6
  br i1 %17, label %18, label %21

18:                                               ; preds = %10
  %19 = tail call i64 @strlen(ptr noundef nonnull dereferenceable(1) %6) #8
  %20 = getelementptr i8, ptr %6, i64 %19
  br label %21

21:                                               ; preds = %18, %10
  %.032 = phi ptr [ %20, %18 ], [ %16, %10 ]
  %22 = icmp sgt i64 %15, 0
  br i1 %22, label %.lr.ph, label %.thread

23:                                               ; preds = %29
  %24 = add i32 %.03149, 1
  %25 = sext i32 %24 to i64
  %26 = icmp sgt i64 %15, %25
  br i1 %26, label %.lr.ph, label %.thread, !llvm.loop !50

.lr.ph:                                           ; preds = %21, %23
  %.03149 = phi i32 [ %24, %23 ], [ 0, %21 ]
  %.03348 = phi ptr [ %30, %23 ], [ %6, %21 ]
  %27 = tail call ptr @strchr(ptr noundef nonnull dereferenceable(1) %.03348, i32 noundef 10) #8
  %28 = icmp eq ptr %27, null
  br i1 %28, label %.thread, label %29

29:                                               ; preds = %.lr.ph
  %30 = getelementptr i8, ptr %27, i64 1
  %.not47 = icmp ugt ptr %30, %.032
  br i1 %.not47, label %.thread, label %23

.thread:                                          ; preds = %29, %23, %.lr.ph, %21
  %.1 = phi ptr [ %6, %21 ], [ %.03348, %.lr.ph ], [ %30, %23 ], [ %.03348, %29 ]
  %31 = tail call ptr @strchr(ptr noundef nonnull dereferenceable(1) %.1, i32 noundef 10) #8
  %32 = icmp eq ptr %31, null
  br i1 %32, label %33, label %36

33:                                               ; preds = %.thread
  %34 = tail call i64 @strlen(ptr noundef nonnull dereferenceable(1) %.1) #8
  %35 = getelementptr i8, ptr %.1, i64 %34
  br label %36

36:                                               ; preds = %33, %.thread
  %.0 = phi ptr [ %35, %33 ], [ %31, %.thread ]
  %37 = ptrtoint ptr %.0 to i64
  %38 = ptrtoint ptr %.1 to i64
  %39 = sub i64 %37, %38
  %40 = tail call ptr @PyUnicode_DecodeUTF8(ptr noundef nonnull %.1, i64 noundef %39, ptr noundef nonnull @.str.13) #7
  br label %41

41:                                               ; preds = %36, %8
  %.030 = phi ptr [ %9, %8 ], [ %40, %36 ]
  ret ptr %.030
}